target datalayout = "e-m:e-p270:32:32-p271:32:32-p272:64:64-i64:64-i128:128-f80:128-n8:16:32:64-S128"
target triple = "x86_64-unknown-linux-gnu"

%struct.cpuinfo_x86 = type { i8, i8, i8, i8, i32, [5 x i32], i8, i8, i8, i32, i32, %union.anon, [16 x i8], [64 x i8], %struct.cpuinfo_topology, i32, i32, i32, i32, i32, i32, i64, i64, i16, i16, i16, i16, i8, i32, i8, i8 }
%union.anon = type { i64, [88 x i8] }
%struct.cpuinfo_topology = type { i32, i32, i32, i32, i32, i32, i32, i32, i32, i32 }
%struct.mpc_cpu = type { i8, i8, i8, i8, i32, i32, [2 x i32] }
%struct.mpc_lintsrc = type { i8, i8, i16, i8, i8, i8, i8 }

@boot_cpu_data = external dso_local local_unnamed_addr global %struct.cpuinfo_x86, align 8

; Function Attrs: cold fn_ret_thunk_extern inlinehint nounwind null_pointer_is_valid optsize
define internal fastcc void @construct_default_ISA_mptable(i32 noundef %0) unnamed_addr #4 section ".init.text" align 16 {
  %2 = alloca %struct.mpc_cpu, align 4
  %3 = alloca %struct.mpc_lintsrc, align 8
  %4 = alloca [2 x i32], align 4
  call void @llvm.lifetime.start.p0(i64 20, ptr nonnull %2) #10
  call void @llvm.memset.p0.i64(ptr noundef nonnull align 4 dereferenceable(20) %2, i8 0, i64 20, i1 false), !annotation !8
  call void @llvm.lifetime.start.p0(i64 8, ptr nonnull %3) #10
  store i64 0, ptr %3, align 8, !annotation !8
  call void @llvm.lifetime.start.p0(i64 8, ptr nonnull %4) #10
  store i32 3, ptr %4, align 4
  %5 = getelementptr inbounds i8, ptr %4, i64 4
  store i32 1, ptr %5, align 4
  store i8 0, ptr %2, align 4
  %6 = icmp sgt i32 %0, 4
  %7 = select i1 %6, i8 16, i8 1
  %8 = getelementptr inbounds i8, ptr %2, i64 2
  store i8 %7, ptr %8, align 2
  %9 = getelementptr inbounds i8, ptr %2, i64 3
  store i8 1, ptr %9, align 1
  %10 = load i8, ptr @boot_cpu_data, align 8
  %11 = zext i8 %10 to i32
  %12 = shl nuw nsw i32 %11, 8
  %13 = load i8, ptr getelementptr inbounds (%struct.cpuinfo_x86, ptr @boot_cpu_data, i64 0, i32 2), align 2
  %14 = zext i8 %13 to i32
  %15 = shl nuw nsw i32 %14, 4
  %16 = or i32 %15, %12
  %17 = load i8, ptr getelementptr inbounds (%struct.cpuinfo_x86, ptr @boot_cpu_data, i64 0, i32 3), align 1
  %18 = zext i8 %17 to i32
  %19 = or i32 %16, %18
  %20 = getelementptr inbounds i8, ptr %2, i64 4
  store i32 %19, ptr %20, align 4
  %21 = load i32, ptr getelementptr inbounds (%struct.cpuinfo_x86, ptr @boot_cpu_data, i64 0, i32 11), align 8
  %22 = getelementptr inbounds i8, ptr %2, i64 8
  store i32 %21, ptr %22, align 4
  %23 = getelementptr inbounds i8, ptr %2, i64 12
  store i32 0, ptr %23, align 4
  %24 = getelementptr inbounds i8, ptr %2, i64 16
  store i32 0, ptr %24, align 4
  %25 = getelementptr inbounds i8, ptr %2, i64 1
  br label %26

26:                                               ; preds = %26, %1
  %27 = phi i32 [ 0, %1 ], [ %29, %26 ]
  %28 = trunc i32 %27 to i8
  store i8 %28, ptr %25, align 1
  call fastcc void @MP_processor_info(ptr noundef nonnull %2) #12
  %29 = add nuw nsw i32 %27, 1
  %30 = icmp eq i32 %27, 0
  br i1 %30, label %26, label %31, !llvm.loop !9

31:                                               ; preds = %26
  tail call fastcc void @construct_ioapic_table(i32 noundef %0) #12
  store i8 4, ptr %3, align 8
  %32 = getelementptr inbounds i8, ptr %3, i64 2
  store i16 0, ptr %32, align 2
  %33 = getelementptr inbounds i8, ptr %3, i64 4
  store i8 0, ptr %33, align 4
  %34 = getelementptr inbounds i8, ptr %3, i64 5
  store i8 0, ptr %34, align 1
  %35 = getelementptr inbounds i8, ptr %3, i64 6
  store i8 -1, ptr %35, align 2
  %36 = getelementptr inbounds i8, ptr %3, i64 1
  %37 = getelementptr inbounds i8, ptr %3, i64 7
  br label %38

38:                                               ; preds = %38, %31
  %39 = phi i64 [ 0, %31 ], [ %44, %38 ]
  %40 = getelementptr [2 x i32], ptr %4, i64 0, i64 %39
  %41 = load i32, ptr %40, align 4
  %42 = trunc i32 %41 to i8
  store i8 %42, ptr %36, align 1
  %43 = trunc i64 %39 to i8
  store i8 %43, ptr %37, align 1
  call fastcc void @MP_lintsrc_info(ptr noundef nonnull %3) #12
  %44 = add nuw nsw i64 %39, 1
  %45 = icmp eq i64 %39, 0
  br i1 %45, label %38, label %46, !llvm.loop !12

46:                                               ; preds = %38
  call void @llvm.lifetime.end.p0(i64 8, ptr nonnull %4) #10
  call void @llvm.lifetime.end.p0(i64 8, ptr nonnull %3) #10
  call void @llvm.lifetime.end.p0(i64 20, ptr nonnull %2) #10
  ret void
}