; Function Attrs: cold fn_ret_thunk_extern inlinehint nounwind null_pointer_is_valid optsize
define internal fastcc void @construct_default_ISA_mptable(i32 noundef %0) unnamed_addr #4 section ".init.text" align 16 {
.critedge:
  %1 = alloca %struct.mpc_cpu, align 4
  %2 = alloca %struct.mpc_lintsrc, align 8
  call void @llvm.lifetime.start.p0(i64 20, ptr nonnull %1) #10
  call void @llvm.lifetime.start.p0(i64 8, ptr nonnull %2) #10
  store i64 71776119061218052, ptr %2, align 8, !annotation !8
  store i8 0, ptr %1, align 4
  %3 = icmp sgt i32 %0, 4
  %4 = select i1 %3, i8 16, i8 1
  %5 = getelementptr inbounds i8, ptr %1, i64 2
  store i8 %4, ptr %5, align 2
  %6 = getelementptr inbounds i8, ptr %1, i64 3
  store i8 1, ptr %6, align 1
  %7 = load i8, ptr @boot_cpu_data, align 8
  %8 = zext i8 %7 to i32
  %9 = shl nuw nsw i32 %8, 8
  %10 = load i8, ptr getelementptr inbounds (%struct.cpuinfo_x86, ptr @boot_cpu_data, i64 0, i32 2), align 2
  %11 = zext i8 %10 to i32
  %12 = shl nuw nsw i32 %11, 4
  %13 = or i32 %12, %9
  %14 = load i8, ptr getelementptr inbounds (%struct.cpuinfo_x86, ptr @boot_cpu_data, i64 0, i32 3), align 1
  %15 = zext i8 %14 to i32
  %16 = or i32 %13, %15
  %17 = getelementptr inbounds i8, ptr %1, i64 4
  store i32 %16, ptr %17, align 4
  %18 = load i32, ptr getelementptr inbounds (%struct.cpuinfo_x86, ptr @boot_cpu_data, i64 0, i32 11), align 8
  %19 = getelementptr inbounds i8, ptr %1, i64 8
  store i32 %18, ptr %19, align 4
  %20 = getelementptr inbounds i8, ptr %1, i64 12
  store i32 0, ptr %20, align 4
  %21 = getelementptr inbounds i8, ptr %1, i64 16
  store i32 0, ptr %21, align 4
  %22 = getelementptr inbounds i8, ptr %1, i64 1
  store i8 0, ptr %22, align 1
  call fastcc void @MP_processor_info(ptr noundef nonnull %1) #12
  store i8 1, ptr %22, align 1
  call fastcc void @MP_processor_info(ptr noundef nonnull %1) #12
  tail call fastcc void @construct_ioapic_table(i32 noundef %0) #12
  %23 = getelementptr inbounds i8, ptr %2, i64 1
  %24 = getelementptr inbounds i8, ptr %2, i64 7
  call fastcc void @MP_lintsrc_info(ptr noundef nonnull %2) #12
  store i8 1, ptr %23, align 1
  store i8 1, ptr %24, align 1
  call fastcc void @MP_lintsrc_info(ptr noundef nonnull %2) #12
  call void @llvm.lifetime.end.p0(i64 8, ptr nonnull %2) #10
  call void @llvm.lifetime.end.p0(i64 20, ptr nonnull %1) #10
  ret void
}